; Function Attrs: mustprogress uwtable
define void @_ZNK32pxrInternal_v0_24__pxrReserved__7UsdPrim21GetRelationshipAtPathERKNS_7SdfPathE(ptr dead_on_unwind noalias writable sret(%"class.pxrInternal_v0_24__pxrReserved__::UsdRelationship") align 8 %0, ptr noundef nonnull align 8 dereferenceable(32) %1, ptr noundef nonnull align 4 dereferenceable(8) %2) local_unnamed_addr #0 align 2 personality ptr @__gxx_personality_v0 {
  %4 = alloca %"class.pxrInternal_v0_24__pxrReserved__::UsdObject", align 8
  call void @_ZNK32pxrInternal_v0_24__pxrReserved__7UsdPrim15GetObjectAtPathERKNS_7SdfPathE(ptr dead_on_unwind nonnull writable sret(%"class.pxrInternal_v0_24__pxrReserved__::UsdObject") align 8 %4, ptr noundef nonnull align 8 dereferenceable(32) %1, ptr noundef nonnull align 4 dereferenceable(8) %2)
  call void @llvm.experimental.noalias.scope.decl(metadata !241)
  %5 = load i32, ptr %4, align 8, !noalias !241
  %6 = icmp eq i32 %5, 4
  br i1 %6, label %7, label %11

7:                                                ; preds = %3
  %8 = getelementptr inbounds nuw i8, ptr %4, i64 8
  %9 = getelementptr inbounds nuw i8, ptr %4, i64 16
  %10 = getelementptr inbounds nuw i8, ptr %4, i64 24
  invoke void @_ZN32pxrInternal_v0_24__pxrReserved__9UsdObjectC2ENS_10UsdObjTypeERKNS_18Usd_PrimDataHandleERKNS_7SdfPathERKNS_7TfTokenE(ptr noundef nonnull align 8 dereferenceable(32) %0, i32 noundef 4, ptr noundef nonnull align 8 dereferenceable(8) %8, ptr noundef nonnull align 4 dereferenceable(8) %9, ptr noundef nonnull align 8 dereferenceable(8) %10)
          to label %_ZNK32pxrInternal_v0_24__pxrReserved__9UsdObject2AsINS_15UsdRelationshipEEET_v.exit unwind label %46

11:                                               ; preds = %3
  store i32 4, ptr %0, align 8, !alias.scope !241
  %12 = getelementptr inbounds nuw i8, ptr %0, i64 8
  call void @llvm.memset.p0.i64(ptr noundef nonnull align 8 dereferenceable(24) %12, i8 0, i64 24, i1 false), !alias.scope !241
  br label %_ZNK32pxrInternal_v0_24__pxrReserved__9UsdObject2AsINS_15UsdRelationshipEEET_v.exit

_ZNK32pxrInternal_v0_24__pxrReserved__9UsdObject2AsINS_15UsdRelationshipEEET_v.exit: ; preds = %11, %7
  %13 = getelementptr inbounds nuw i8, ptr %4, i64 24
  %14 = load ptr, ptr %13, align 8
  %15 = ptrtoint ptr %14 to i64
  %16 = and i64 %15, 7
  %.not.i.i.i = icmp eq i64 %16, 0
  br i1 %.not.i.i.i, label %_ZN32pxrInternal_v0_24__pxrReserved__7TfTokenD2Ev.exit.i, label %17

17:                                               ; preds = %_ZNK32pxrInternal_v0_24__pxrReserved__9UsdObject2AsINS_15UsdRelationshipEEET_v.exit
  %18 = and i64 %15, -8
  %19 = inttoptr i64 %18 to ptr
  %20 = atomicrmw sub ptr %19, i32 2 release, align 4
  br label %_ZN32pxrInternal_v0_24__pxrReserved__7TfTokenD2Ev.exit.i

_ZN32pxrInternal_v0_24__pxrReserved__7TfTokenD2Ev.exit.i: ; preds = %17, %_ZNK32pxrInternal_v0_24__pxrReserved__9UsdObject2AsINS_15UsdRelationshipEEET_v.exit
  %21 = getelementptr inbounds nuw i8, ptr %4, i64 16
  %22 = load i32, ptr %21, align 8
  %.not.i.i1.i = icmp eq i32 %22, 0
  br i1 %.not.i.i1.i, label %_ZN32pxrInternal_v0_24__pxrReserved__7SdfPathD2Ev.exit.i, label %23

23:                                               ; preds = %_ZN32pxrInternal_v0_24__pxrReserved__7TfTokenD2Ev.exit.i
  %24 = and i32 %22, 255
  %25 = lshr i32 %22, 8
  %26 = zext nneg i32 %24 to i64
  %27 = getelementptr inbounds [257 x ptr], ptr @_ZN32pxrInternal_v0_24__pxrReserved__8Sdf_PoolINS_15Sdf_PathPrimTagELj24ELj8ELj16384EE13_regionStartsE, i64 0, i64 %26
  %28 = load ptr, ptr %27, align 8
  %29 = mul nuw nsw i32 %25, 24
  %30 = zext nneg i32 %29 to i64
  %31 = getelementptr inbounds i8, ptr %28, i64 %30
  %32 = getelementptr inbounds nuw i8, ptr %31, i64 8
  %33 = atomicrmw sub ptr %32, i32 1 seq_cst, align 4
  %34 = and i32 %33, 2147483647
  %35 = icmp eq i32 %34, 1
  br i1 %35, label %36, label %_ZN32pxrInternal_v0_24__pxrReserved__7SdfPathD2Ev.exit.i

36:                                               ; preds = %23
  invoke void @_ZNK32pxrInternal_v0_24__pxrReserved__12Sdf_PathNode8_DestroyEv(ptr noundef nonnull align 8 dereferenceable(16) %31)
          to label %_ZN32pxrInternal_v0_24__pxrReserved__7SdfPathD2Ev.exit.i unwind label %37

37:                                               ; preds = %36
  %38 = landingpad { ptr, i32 }
          catch ptr null
  %39 = extractvalue { ptr, i32 } %38, 0
  call void @__clang_call_terminate(ptr %39) #23
  unreachable

_ZN32pxrInternal_v0_24__pxrReserved__7SdfPathD2Ev.exit.i: ; preds = %36, %23, %_ZN32pxrInternal_v0_24__pxrReserved__7TfTokenD2Ev.exit.i
  %40 = getelementptr inbounds nuw i8, ptr %4, i64 8
  %41 = load ptr, ptr %40, align 8
  %.not.i.i.i.i = icmp eq ptr %41, null
  br i1 %.not.i.i.i.i, label %_ZN32pxrInternal_v0_24__pxrReserved__9UsdObjectD2Ev.exit, label %42

42:                                               ; preds = %_ZN32pxrInternal_v0_24__pxrReserved__7SdfPathD2Ev.exit.i
  %43 = getelementptr inbounds nuw i8, ptr %41, i64 48
  %44 = atomicrmw sub ptr %43, i64 1 release, align 8
  %.not1.i.i.i.i = icmp eq i64 %44, 1
  br i1 %.not1.i.i.i.i, label %45, label %_ZN32pxrInternal_v0_24__pxrReserved__9UsdObjectD2Ev.exit

45:                                               ; preds = %42
  call void @_ZN32pxrInternal_v0_24__pxrReserved__12Usd_PrimDataD1Ev(ptr noundef nonnull align 8 dereferenceable(64) %41) #18
  call void @_ZdlPvm(ptr noundef nonnull %41, i64 noundef 64) #25
  br label %_ZN32pxrInternal_v0_24__pxrReserved__9UsdObjectD2Ev.exit

_ZN32pxrInternal_v0_24__pxrReserved__9UsdObjectD2Ev.exit: ; preds = %_ZN32pxrInternal_v0_24__pxrReserved__7SdfPathD2Ev.exit.i, %42, %45
  ret void

46:                                               ; preds = %7
  %47 = landingpad { ptr, i32 }
          cleanup
  call void @_ZN32pxrInternal_v0_24__pxrReserved__9UsdObjectD2Ev(ptr noundef nonnull align 8 dereferenceable(32) %4) #18
  resume { ptr, i32 } %47
}